; Function Attrs: null_pointer_is_valid sspstrong uwtable
define internal noundef zeroext i1 @print_finale_ps(ptr noundef readonly captures(none) %0) #0 {
  %2 = getelementptr inbounds nuw i8, ptr %0, i64 8
  %3 = load ptr, ptr %2, align 8
  %4 = getelementptr inbounds nuw i8, ptr %3, i64 8
  %5 = load ptr, ptr %4, align 8
  tail call void @print_ps_finale(ptr noundef %5)
  %6 = load ptr, ptr %4, align 8
  %7 = tail call i32 @ferror(ptr noundef %6) #13
  %.not = icmp eq i32 %7, 0
  ret i1 %.not
}